; ModuleID = '60/702.c'
source_filename = "60/702.c"
target datalayout = "e-m:e-p270:32:32-p271:32:32-p272:64:64-i64:64-f80:128-n8:16:32:64-S128"
target triple = "x86_64-pc-linux-gnu"

@.str = private unnamed_addr constant [3 x i8] c"%d\00", align 1
@.str.1 = private unnamed_addr constant [7 x i8] c"%d %d\0A\00", align 1
@.str.2 = private unnamed_addr constant [6 x i8] c"empty\00", align 1

; Function Attrs: noinline nounwind uwtable
define dso_local i32 @main() #0 {
  %1 = alloca i32, align 4
  %2 = alloca i32, align 4
  %3 = alloca i32, align 4
  %4 = alloca i32, align 4
  %5 = alloca i32, align 4
  %6 = alloca i32, align 4
  store i32 0, i32* %1, align 4
  store i32 0, i32* %6, align 4
  %7 = call i32 (i8*, ...) @__isoc99_scanf(i8* getelementptr inbounds ([3 x i8], [3 x i8]* @.str, i64 0, i64 0), i32* %2)
  store i32 3, i32* %3, align 4
  br label %8

8:                                                ; preds = %75, %0
  %9 = load i32, i32* %3, align 4
  %10 = load i32, i32* %2, align 4
  %11 = sub nsw i32 %10, 1
  %12 = icmp slt i32 %9, %11
  br i1 %12, label %13, label %78

13:                                               ; preds = %8
  store i32 3, i32* %4, align 4
  br label %14

14:                                               ; preds = %28, %13
  %15 = load i32, i32* %4, align 4
  %16 = sitofp i32 %15 to double
  %17 = load i32, i32* %3, align 4
  %18 = sitofp i32 %17 to double
  %19 = call double @sqrt(double %18) #3
  %20 = fcmp olt double %16, %19
  br i1 %20, label %21, label %31

21:                                               ; preds = %14
  %22 = load i32, i32* %3, align 4
  %23 = load i32, i32* %4, align 4
  %24 = srem i32 %22, %23
  %25 = icmp eq i32 %24, 0
  br i1 %25, label %26, label %27

26:                                               ; preds = %21
  br label %31

27:                                               ; preds = %21
  br label %28

28:                                               ; preds = %27
  %29 = load i32, i32* %4, align 4
  %30 = add nsw i32 %29, 2
  store i32 %30, i32* %4, align 4
  br label %14

31:                                               ; preds = %26, %14
  %32 = load i32, i32* %4, align 4
  %33 = sitofp i32 %32 to double
  %34 = load i32, i32* %3, align 4
  %35 = sitofp i32 %34 to double
  %36 = call double @sqrt(double %35) #3
  %37 = fcmp ogt double %33, %36
  br i1 %37, label %38, label %74

38:                                               ; preds = %31
  store i32 3, i32* %5, align 4
  br label %39

39:                                               ; preds = %55, %38
  %40 = load i32, i32* %5, align 4
  %41 = sitofp i32 %40 to double
  %42 = load i32, i32* %3, align 4
  %43 = add nsw i32 %42, 2
  %44 = sitofp i32 %43 to double
  %45 = call double @sqrt(double %44) #3
  %46 = fcmp olt double %41, %45
  br i1 %46, label %47, label %58

47:                                               ; preds = %39
  %48 = load i32, i32* %3, align 4
  %49 = add nsw i32 %48, 2
  %50 = load i32, i32* %5, align 4
  %51 = srem i32 %49, %50
  %52 = icmp eq i32 %51, 0
  br i1 %52, label %53, label %54

53:                                               ; preds = %47
  br label %58

54:                                               ; preds = %47
  br label %55

55:                                               ; preds = %54
  %56 = load i32, i32* %5, align 4
  %57 = add nsw i32 %56, 2
  store i32 %57, i32* %5, align 4
  br label %39

58:                                               ; preds = %53, %39
  %59 = load i32, i32* %5, align 4
  %60 = sitofp i32 %59 to double
  %61 = load i32, i32* %3, align 4
  %62 = add nsw i32 %61, 2
  %63 = sitofp i32 %62 to double
  %64 = call double @sqrt(double %63) #3
  %65 = fcmp ogt double %60, %64
  br i1 %65, label %66, label %73

66:                                               ; preds = %58
  %67 = load i32, i32* %3, align 4
  %68 = load i32, i32* %3, align 4
  %69 = add nsw i32 %68, 2
  %70 = call i32 (i8*, ...) @printf(i8* getelementptr inbounds ([7 x i8], [7 x i8]* @.str.1, i64 0, i64 0), i32 %67, i32 %69)
  %71 = load i32, i32* %6, align 4
  %72 = add nsw i32 %71, 1
  store i32 %72, i32* %6, align 4
  br label %73

73:                                               ; preds = %66, %58
  br label %74

74:                                               ; preds = %73, %31
  br label %75

75:                                               ; preds = %74
  %76 = load i32, i32* %3, align 4
  %77 = add nsw i32 %76, 2
  store i32 %77, i32* %3, align 4
  br label %8

78:                                               ; preds = %8
  %79 = load i32, i32* %6, align 4
  %80 = icmp eq i32 %79, 0
  br i1 %80, label %81, label %83

81:                                               ; preds = %78
  %82 = call i32 (i8*, ...) @printf(i8* getelementptr inbounds ([6 x i8], [6 x i8]* @.str.2, i64 0, i64 0))
  br label %83

83:                                               ; preds = %81, %78
  ret i32 0
}

declare dso_local i32 @__isoc99_scanf(i8*, ...) #1

; Function Attrs: nounwind
declare dso_local double @sqrt(double) #2

declare dso_local i32 @printf(i8*, ...) #1


!llvm.module.flags = !{!0}
!llvm.ident = !{!1}

!0 = !{i32 1, !"wchar_size", i32 4}
!1 = !{!"clang version 10.0.0-4ubuntu1 "}
